target datalayout = "e-m:e-p270:32:32-p271:32:32-p272:64:64-i64:64-i128:128-f80:128-n8:16:32:64-S128"
target triple = "x86_64-pc-linux-gnu"

%struct.H5D_compact_iovv_memmanage_ud_t = type { ptr, ptr, ptr }
%struct.H5FD_ctl_memcpy_args_t = type { ptr, i64, ptr, i64, i64 }

@H5D_init_g = external global i8, align 1
@H5_libterm_g = external global i8, align 1
@.str = private unnamed_addr constant [104 x i8] c"generated/home/dtcxzyw/WorkSpace/Projects/compilers/llvm-opt-benchmark/bench/hdf5/hdf5/src/H5Dcompact.c\00", align 1
@H5E_CANTGET_g = external global i64, align 8
@H5E_IO_g = external global i64, align 8
@__func__.H5D__compact_iovv_memmanage_cb = private unnamed_addr constant [31 x i8] c"H5D__compact_iovv_memmanage_cb\00", align 1
@.str.24 = private unnamed_addr constant [22 x i8] c"can't get file handle\00", align 1
@H5E_FCNTL_g = external global i64, align 8
@.str.25 = private unnamed_addr constant [26 x i8] c"VFD memcpy request failed\00", align 1

; Function Attrs: nounwind uwtable
define internal i32 @H5D__compact_iovv_memmanage_cb(i64 noundef %0, i64 noundef %1, i64 noundef %2, ptr noundef %3) #0 {
  %5 = alloca i64, align 8
  %6 = alloca i64, align 8
  %7 = alloca i64, align 8
  %8 = alloca ptr, align 8
  %9 = alloca ptr, align 8
  %10 = alloca %struct.H5FD_ctl_memcpy_args_t, align 8
  %11 = alloca i64, align 8
  %12 = alloca ptr, align 8
  %13 = alloca i32, align 4
  %14 = alloca i8, align 1
  store i64 %0, ptr %5, align 8, !tbaa !49
  store i64 %1, ptr %6, align 8, !tbaa !49
  store i64 %2, ptr %7, align 8, !tbaa !49
  store ptr %3, ptr %8, align 8, !tbaa !95
  call void @llvm.lifetime.start.p0(i64 8, ptr %9) #6
  %15 = load ptr, ptr %8, align 8, !tbaa !95
  store ptr %15, ptr %9, align 8, !tbaa !107
  call void @llvm.lifetime.start.p0(i64 40, ptr %10) #6
  call void @llvm.lifetime.start.p0(i64 8, ptr %11) #6
  call void @llvm.lifetime.start.p0(i64 8, ptr %12) #6
  store ptr null, ptr %12, align 8, !tbaa !109
  call void @llvm.lifetime.start.p0(i64 4, ptr %13) #6
  store i32 0, ptr %13, align 4, !tbaa !10
  call void @llvm.lifetime.start.p0(i64 1, ptr %14) #6
  store i8 0, ptr %14, align 1, !tbaa !12
  %16 = load i8, ptr @H5D_init_g, align 1, !tbaa !12, !range !14, !noundef !15
  %17 = trunc i8 %16 to i1
  br i1 %17, label %22, label %18

18:                                               ; preds = %4
  %19 = load i8, ptr @H5_libterm_g, align 1, !tbaa !12, !range !14, !noundef !15
  %20 = trunc i8 %19 to i1
  %21 = xor i1 %20, true
  br label %22

22:                                               ; preds = %18, %4
  %23 = phi i1 [ true, %4 ], [ %21, %18 ]
  %24 = xor i1 %23, true
  %25 = xor i1 %24, true
  %26 = zext i1 %25 to i32
  %27 = sext i32 %26 to i64
  %28 = call i64 @llvm.expect.i64(i64 %27, i64 1)
  %29 = icmp ne i64 %28, 0
  br i1 %29, label %30, label %95

30:                                               ; preds = %22
  %31 = load ptr, ptr %9, align 8, !tbaa !107
  %32 = getelementptr inbounds nuw %struct.H5D_compact_iovv_memmanage_ud_t, ptr %31, i32 0, i32 0
  %33 = load ptr, ptr %32, align 8, !tbaa !81
  %34 = call i32 @H5F_shared_get_file_driver(ptr noundef %33, ptr noundef %12)
  %35 = icmp slt i32 %34, 0
  br i1 %35, label %36, label %55

36:                                               ; preds = %30
  br label %37

37:                                               ; preds = %36
  br label %38

38:                                               ; preds = %37
  br label %39

39:                                               ; preds = %38
  %40 = load i64, ptr @H5E_IO_g, align 8, !tbaa !49
  %41 = load i64, ptr @H5E_CANTGET_g, align 8, !tbaa !49
  %42 = call i32 (ptr, ptr, i32, i64, i64, ptr, ...) @H5E_printf_stack(ptr noundef @.str, ptr noundef @__func__.H5D__compact_iovv_memmanage_cb, i32 noundef 328, i64 noundef %40, i64 noundef %41, ptr noundef @.str.24)
  br label %43

43:                                               ; preds = %39
  br label %44

44:                                               ; preds = %43
  store i8 1, ptr %14, align 1, !tbaa !12
  %45 = load i8, ptr %14, align 1, !tbaa !12, !range !14, !noundef !15
  %46 = trunc i8 %45 to i1
  %47 = zext i1 %46 to i8
  store i8 %47, ptr %14, align 1, !tbaa !12
  br label %48

48:                                               ; preds = %44
  br label %49

49:                                               ; preds = %48
  br label %50

50:                                               ; preds = %49
  store i32 -1, ptr %13, align 4, !tbaa !10
  br label %94

51:                                               ; No predecessors!
  br label %52

52:                                               ; preds = %51
  br label %53

53:                                               ; preds = %52
  br label %54

54:                                               ; preds = %53
  br label %55

55:                                               ; preds = %54, %30
  store i64 3, ptr %11, align 8, !tbaa !49
  %56 = load ptr, ptr %9, align 8, !tbaa !107
  %57 = getelementptr inbounds nuw %struct.H5D_compact_iovv_memmanage_ud_t, ptr %56, i32 0, i32 1
  %58 = load ptr, ptr %57, align 8, !tbaa !83
  %59 = getelementptr inbounds nuw %struct.H5FD_ctl_memcpy_args_t, ptr %10, i32 0, i32 0
  store ptr %58, ptr %59, align 8, !tbaa !111
  %60 = load i64, ptr %5, align 8, !tbaa !49
  %61 = getelementptr inbounds nuw %struct.H5FD_ctl_memcpy_args_t, ptr %10, i32 0, i32 1
  store i64 %60, ptr %61, align 8, !tbaa !113
  %62 = load ptr, ptr %9, align 8, !tbaa !107
  %63 = getelementptr inbounds nuw %struct.H5D_compact_iovv_memmanage_ud_t, ptr %62, i32 0, i32 2
  %64 = load ptr, ptr %63, align 8, !tbaa !84
  %65 = getelementptr inbounds nuw %struct.H5FD_ctl_memcpy_args_t, ptr %10, i32 0, i32 2
  store ptr %64, ptr %65, align 8, !tbaa !114
  %66 = load i64, ptr %6, align 8, !tbaa !49
  %67 = getelementptr inbounds nuw %struct.H5FD_ctl_memcpy_args_t, ptr %10, i32 0, i32 3
  store i64 %66, ptr %67, align 8, !tbaa !115
  %68 = load i64, ptr %7, align 8, !tbaa !49
  %69 = getelementptr inbounds nuw %struct.H5FD_ctl_memcpy_args_t, ptr %10, i32 0, i32 4
  store i64 %68, ptr %69, align 8, !tbaa !116
  %70 = load ptr, ptr %12, align 8, !tbaa !109
  %71 = load i64, ptr %11, align 8, !tbaa !49
  %72 = call i32 @H5FD_ctl(ptr noundef %70, i64 noundef 7, i64 noundef %71, ptr noundef %10, ptr noundef null)
  %73 = icmp slt i32 %72, 0
  br i1 %73, label %74, label %93

74:                                               ; preds = %55
  br label %75

75:                                               ; preds = %74
  br label %76

76:                                               ; preds = %75
  br label %77

77:                                               ; preds = %76
  %78 = load i64, ptr @H5E_IO_g, align 8, !tbaa !49
  %79 = load i64, ptr @H5E_FCNTL_g, align 8, !tbaa !49
  %80 = call i32 (ptr, ptr, i32, i64, i64, ptr, ...) @H5E_printf_stack(ptr noundef @.str, ptr noundef @__func__.H5D__compact_iovv_memmanage_cb, i32 noundef 341, i64 noundef %78, i64 noundef %79, ptr noundef @.str.25)
  br label %81

81:                                               ; preds = %77
  br label %82

82:                                               ; preds = %81
  store i8 1, ptr %14, align 1, !tbaa !12
  %83 = load i8, ptr %14, align 1, !tbaa !12, !range !14, !noundef !15
  %84 = trunc i8 %83 to i1
  %85 = zext i1 %84 to i8
  store i8 %85, ptr %14, align 1, !tbaa !12
  br label %86

86:                                               ; preds = %82
  br label %87

87:                                               ; preds = %86
  br label %88

88:                                               ; preds = %87
  store i32 -1, ptr %13, align 4, !tbaa !10
  br label %94

89:                                               ; No predecessors!
  br label %90

90:                                               ; preds = %89
  br label %91

91:                                               ; preds = %90
  br label %92

92:                                               ; preds = %91
  br label %93

93:                                               ; preds = %92, %55
  br label %94

94:                                               ; preds = %93, %88, %50
  br label %95

95:                                               ; preds = %94, %22
  %96 = load i32, ptr %13, align 4, !tbaa !10
  call void @llvm.lifetime.end.p0(i64 1, ptr %14) #6
  call void @llvm.lifetime.end.p0(i64 4, ptr %13) #6
  call void @llvm.lifetime.end.p0(i64 8, ptr %12) #6
  call void @llvm.lifetime.end.p0(i64 8, ptr %11) #6
  call void @llvm.lifetime.end.p0(i64 40, ptr %10) #6
  call void @llvm.lifetime.end.p0(i64 8, ptr %9) #6
  ret i32 %96
}