; Function Attrs: nounwind uwtable
define internal range(i32 -1, 1) i32 @H5D__compact_iovv_memmanage_cb(i64 noundef %0, i64 noundef %1, i64 noundef %2, ptr noundef readonly captures(none) %3) #0 {
  %5 = alloca %struct.H5FD_ctl_memcpy_args_t, align 8
  %6 = alloca ptr, align 8
  call void @llvm.lifetime.start.p0(i64 40, ptr nonnull %5) #8
  call void @llvm.lifetime.start.p0(i64 8, ptr nonnull %6) #8
  store ptr null, ptr %6, align 8, !tbaa !90
  %7 = load i8, ptr @H5D_init_g, align 1, !tbaa !3, !range !7, !noundef !8
  %8 = trunc nuw i8 %7 to i1
  %9 = load i8, ptr @H5_libterm_g, align 1, !range !7
  %10 = trunc nuw i8 %9 to i1
  %11 = xor i1 %10, true
  %12 = select i1 %8, i1 true, i1 %11
  br i1 %12, label %13, label %37, !prof !9

13:                                               ; preds = %4
  %14 = load ptr, ptr %3, align 8, !tbaa !73
  %15 = call i32 @H5F_shared_get_file_driver(ptr noundef %14, ptr noundef nonnull %6) #8
  %16 = icmp slt i32 %15, 0
  br i1 %16, label %17, label %21

17:                                               ; preds = %13
  %18 = load i64, ptr @H5E_IO_g, align 8, !tbaa !48
  %19 = load i64, ptr @H5E_CANTGET_g, align 8, !tbaa !48
  %20 = call i32 (ptr, ptr, i32, i64, i64, ptr, ...) @H5E_printf_stack(ptr noundef nonnull @.str, ptr noundef nonnull @__func__.H5D__compact_iovv_memmanage_cb, i32 noundef 328, i64 noundef %18, i64 noundef %19, ptr noundef nonnull @.str.24) #8
  br label %37

21:                                               ; preds = %13
  %22 = getelementptr inbounds nuw i8, ptr %3, i64 8
  %23 = load ptr, ptr %22, align 8, !tbaa !75
  store ptr %23, ptr %5, align 8, !tbaa !92
  %24 = getelementptr inbounds nuw i8, ptr %5, i64 8
  store i64 %0, ptr %24, align 8, !tbaa !94
  %25 = getelementptr inbounds nuw i8, ptr %3, i64 16
  %26 = load ptr, ptr %25, align 8, !tbaa !76
  %27 = getelementptr inbounds nuw i8, ptr %5, i64 16
  store ptr %26, ptr %27, align 8, !tbaa !95
  %28 = getelementptr inbounds nuw i8, ptr %5, i64 24
  store i64 %1, ptr %28, align 8, !tbaa !96
  %29 = getelementptr inbounds nuw i8, ptr %5, i64 32
  store i64 %2, ptr %29, align 8, !tbaa !97
  %30 = load ptr, ptr %6, align 8, !tbaa !90
  %31 = call i32 @H5FD_ctl(ptr noundef %30, i64 noundef 7, i64 noundef 3, ptr noundef nonnull %5, ptr noundef null) #8
  %32 = icmp slt i32 %31, 0
  br i1 %32, label %33, label %37

33:                                               ; preds = %21
  %34 = load i64, ptr @H5E_IO_g, align 8, !tbaa !48
  %35 = load i64, ptr @H5E_FCNTL_g, align 8, !tbaa !48
  %36 = call i32 (ptr, ptr, i32, i64, i64, ptr, ...) @H5E_printf_stack(ptr noundef nonnull @.str, ptr noundef nonnull @__func__.H5D__compact_iovv_memmanage_cb, i32 noundef 341, i64 noundef %34, i64 noundef %35, ptr noundef nonnull @.str.25) #8
  br label %37

37:                                               ; preds = %17, %33, %21, %4
  %.0 = phi i32 [ -1, %17 ], [ -1, %33 ], [ 0, %21 ], [ 0, %4 ]
  call void @llvm.lifetime.end.p0(i64 8, ptr nonnull %6) #8
  call void @llvm.lifetime.end.p0(i64 40, ptr nonnull %5) #8
  ret i32 %.0
}